; Function Attrs: mustprogress nofree norecurse nosync nounwind willreturn memory(none) uwtable
define noundef nonnull align 8 dereferenceable(8) ptr @_ZNK32pxrInternal_v0_24__pxrReserved__14HdReprSelectorixEm(ptr noundef nonnull readnone align 8 dereferenceable(24) %0, i64 noundef %1) local_unnamed_addr #3 align 2 {
  switch i64 %1, label %7 [
    i64 2, label %5
    i64 1, label %3
  ]

3:                                                ; preds = %2
  %4 = getelementptr inbounds nuw i8, ptr %0, i64 8
  br label %7

5:                                                ; preds = %2
  %6 = getelementptr inbounds nuw i8, ptr %0, i64 16
  br label %7

7:                                                ; preds = %2, %5, %3
  %.0 = phi ptr [ %6, %5 ], [ %4, %3 ], [ %0, %2 ]
  ret ptr %.0
}